target datalayout = "e-m:e-p270:32:32-p271:32:32-p272:64:64-i64:64-i128:128-f80:128-n8:16:32:64-S128"
target triple = "x86_64-pc-linux-gnu"

%struct._GdkRGBA = type { double, double, double, double }
%struct.darktable_t = type { %struct.dt_codepath_t, i32, i32, ptr, ptr, ptr, ptr, ptr, ptr, ptr, ptr, ptr, ptr, ptr, ptr, ptr, ptr, ptr, ptr, ptr, ptr, ptr, ptr, ptr, ptr, ptr, ptr, ptr, ptr, ptr, [64 x %struct.dt_pthread_mutex_t], %struct.dt_pthread_mutex_t, %struct.dt_pthread_mutex_t, %struct.dt_pthread_mutex_t, %struct.dt_pthread_mutex_t, %struct.dt_pthread_mutex_t, ptr, ptr, ptr, ptr, ptr, ptr, ptr, ptr, ptr, ptr, ptr, ptr, ptr, %struct.dt_lua_state_t, ptr, double, ptr, i32, [47 x i32], i32, i32, ptr, ptr, %struct.dt_sys_resources_t, %struct.dt_backthumb_t, %struct.dt_gimp_t }
%struct.dt_codepath_t = type { i8, [3 x i8] }
%struct.dt_pthread_mutex_t = type { %union.pthread_mutex_t }
%union.pthread_mutex_t = type { %struct.__pthread_mutex_s }
%struct.__pthread_mutex_s = type { i32, i32, i32, i32, i32, i16, i16, %struct.__pthread_internal_list }
%struct.__pthread_internal_list = type { ptr, ptr }
%struct.dt_lua_state_t = type { i32 }
%struct.dt_sys_resources_t = type { i64, i64, ptr, ptr, i32 }
%struct.dt_backthumb_t = type { double, double, i32, i32, i32, i32 }
%struct.dt_gimp_t = type { i32, ptr, ptr, i32, i32 }
%struct.dt_iop_module_t = type { i32, ptr, ptr, ptr, ptr, ptr, ptr, ptr, ptr, ptr, ptr, ptr, ptr, ptr, ptr, ptr, ptr, ptr, ptr, ptr, ptr, ptr, ptr, ptr, ptr, ptr, ptr, ptr, ptr, ptr, ptr, ptr, ptr, ptr, ptr, ptr, ptr, ptr, ptr, ptr, ptr, ptr, ptr, ptr, ptr, ptr, ptr, ptr, ptr, ptr, ptr, ptr, ptr, ptr, ptr, ptr, ptr, [20 x i8], i32, i32, i32, i32, i32, i32, i32, [8 x i8], [4 x float], [4 x float], [4 x float], [4 x float], [4 x float], [4 x float], ptr, %struct.dt_dev_histogram_stats_t, [4 x i32], i32, i32, ptr, i32, i32, ptr, ptr, i32, ptr, %struct.dt_pthread_mutex_t, ptr, ptr, ptr, ptr, %struct.anon, ptr, ptr, ptr, ptr, ptr, ptr, ptr, i32, ptr, ptr, ptr, ptr, ptr, ptr, ptr, i32, ptr, i32, [128 x i8], i32, ptr, ptr, i32, [12 x i8] }
%struct.dt_dev_histogram_stats_t = type { i32, i64, i32, i32 }
%struct.anon = type { %struct.anon.0, %struct.anon.1 }
%struct.anon.0 = type { ptr, ptr }
%struct.anon.1 = type { ptr, i32 }
%struct.dt_iop_gui_blend_data_t = type { i32, i32, i32, i32, i32, i32, i32, ptr, ptr, ptr, ptr, ptr, ptr, ptr, ptr, ptr, ptr, ptr, ptr, ptr, [2 x %struct.dt_iop_gui_blendif_filter_t], ptr, ptr, ptr, ptr, ptr, ptr, ptr, ptr, ptr, ptr, ptr, ptr, i32, i32, ptr, i32, [8 x [2 x i32]], i32, i32, ptr, i32, ptr, ptr, ptr, [5 x ptr], [5 x i32], ptr, ptr, ptr, i32, ptr, ptr, i32, %struct.dt_pthread_mutex_t }
%struct.dt_iop_gui_blendif_filter_t = type { ptr, ptr, [4 x ptr], ptr, ptr, ptr }
%struct.dt_gui_gtk_t = type { ptr, %struct.dt_gui_widgets_t, %struct.dt_gui_scrollbars_t, i32, ptr, i32, [39 x %struct._GdkRGBA], i32, i32, i32, i32, i32, double, double, double, double, ptr, double, double, double, double, i32, i32, [4096 x i8], i32, i32, i32, %struct.dt_pthread_mutex_t }
%struct.dt_gui_widgets_t = type { ptr, ptr, ptr, ptr, i32, i32, i32 }
%struct.dt_gui_scrollbars_t = type { ptr, ptr, i32 }
%struct.dt_develop_blend_params_t = type { i32, i32, i32, float, float, i32, i32, i32, float, i32, float, float, float, float, i32, [2 x i32], [64 x float], [16 x float], [20 x i8], i32, i32, i32 }

@darktable = external global %struct.darktable_t, align 8

; Function Attrs: nounwind uwtable
define internal void @_blendop_blendif_details_callback(ptr noundef %0, ptr noundef %1) #0 {
  %3 = alloca ptr, align 8
  %4 = alloca ptr, align 8
  %5 = alloca ptr, align 8
  %6 = alloca float, align 4
  store ptr %0, ptr %3, align 8, !tbaa !11
  store ptr %1, ptr %4, align 8, !tbaa !31
  %7 = load ptr, ptr getelementptr inbounds nuw (%struct.darktable_t, ptr @darktable, i32 0, i32 14), align 8, !tbaa !39
  %8 = getelementptr inbounds nuw %struct.dt_gui_gtk_t, ptr %7, i32 0, i32 5
  %9 = load i32, ptr %8, align 8, !tbaa !72
  %10 = icmp ne i32 %9, 0
  br i1 %10, label %19, label %11

11:                                               ; preds = %2
  %12 = load ptr, ptr %4, align 8, !tbaa !31
  %13 = icmp ne ptr %12, null
  br i1 %13, label %14, label %19

14:                                               ; preds = %11
  %15 = load ptr, ptr %4, align 8, !tbaa !31
  %16 = getelementptr inbounds nuw %struct.dt_iop_gui_blend_data_t, ptr %15, i32 0, i32 2
  %17 = load i32, ptr %16, align 8, !tbaa !156
  %18 = icmp ne i32 %17, 0
  br i1 %18, label %20, label %19

19:                                               ; preds = %14, %11, %2
  br label %51

20:                                               ; preds = %14
  call void @llvm.lifetime.start.p0(i64 8, ptr %5) #11
  %21 = load ptr, ptr %4, align 8, !tbaa !31
  %22 = getelementptr inbounds nuw %struct.dt_iop_gui_blend_data_t, ptr %21, i32 0, i32 7
  %23 = load ptr, ptr %22, align 8, !tbaa !134
  %24 = getelementptr inbounds nuw %struct.dt_iop_module_t, ptr %23, i32 0, i32 86
  %25 = load ptr, ptr %24, align 8, !tbaa !77
  store ptr %25, ptr %5, align 8, !tbaa !78
  call void @llvm.lifetime.start.p0(i64 4, ptr %6) #11
  %26 = load ptr, ptr %5, align 8, !tbaa !78
  %27 = getelementptr inbounds nuw %struct.dt_develop_blend_params_t, ptr %26, i32 0, i32 13
  %28 = load float, ptr %27, align 4, !tbaa !174
  store float %28, ptr %6, align 4, !tbaa !83
  %29 = load ptr, ptr %3, align 8, !tbaa !11
  %30 = call reassoc nsz arcp contract afn float @dt_bauhaus_slider_get(ptr noundef %29)
  %31 = load ptr, ptr %5, align 8, !tbaa !78
  %32 = getelementptr inbounds nuw %struct.dt_develop_blend_params_t, ptr %31, i32 0, i32 13
  store float %30, ptr %32, align 4, !tbaa !174
  %33 = load ptr, ptr getelementptr inbounds nuw (%struct.darktable_t, ptr @darktable, i32 0, i32 9), align 8, !tbaa !132
  %34 = load ptr, ptr %4, align 8, !tbaa !31
  %35 = getelementptr inbounds nuw %struct.dt_iop_gui_blend_data_t, ptr %34, i32 0, i32 7
  %36 = load ptr, ptr %35, align 8, !tbaa !134
  call void @dt_dev_add_history_item(ptr noundef %33, ptr noundef %36, i32 noundef 1)
  %37 = load float, ptr %6, align 4, !tbaa !83
  %38 = fcmp reassoc nsz arcp contract afn oeq float %37, 0.000000e+00
  br i1 %38, label %39, label %50

39:                                               ; preds = %20
  %40 = load ptr, ptr %5, align 8, !tbaa !78
  %41 = getelementptr inbounds nuw %struct.dt_develop_blend_params_t, ptr %40, i32 0, i32 13
  %42 = load float, ptr %41, align 4, !tbaa !174
  %43 = fcmp reassoc nsz arcp contract afn une float %42, 0.000000e+00
  br i1 %43, label %44, label %50

44:                                               ; preds = %39
  %45 = load ptr, ptr %4, align 8, !tbaa !31
  %46 = getelementptr inbounds nuw %struct.dt_iop_gui_blend_data_t, ptr %45, i32 0, i32 7
  %47 = load ptr, ptr %46, align 8, !tbaa !134
  %48 = getelementptr inbounds nuw %struct.dt_iop_module_t, ptr %47, i32 0, i32 77
  %49 = load ptr, ptr %48, align 8, !tbaa !92
  call void @dt_dev_reprocess_all(ptr noundef %49)
  call void (...) @dt_control_queue_redraw()
  br label %50

50:                                               ; preds = %44, %39, %20
  call void @llvm.lifetime.end.p0(i64 4, ptr %6) #11
  call void @llvm.lifetime.end.p0(i64 8, ptr %5) #11
  br label %51

51:                                               ; preds = %50, %19
  ret void
}