; Function Attrs: nounwind uwtable
define internal void @_blendop_blendif_details_callback(ptr noundef %0, ptr noundef readonly %1) #0 {
  %3 = load ptr, ptr getelementptr inbounds nuw (i8, ptr @darktable, i64 104), align 8, !tbaa !33
  %4 = getelementptr inbounds nuw i8, ptr %3, i64 96
  %5 = load i32, ptr %4, align 8, !tbaa !66
  %6 = icmp eq i32 %5, 0
  %7 = icmp ne ptr %1, null
  %or.cond = and i1 %7, %6
  br i1 %or.cond, label %8, label %29

8:                                                ; preds = %2
  %9 = getelementptr inbounds nuw i8, ptr %1, i64 8
  %10 = load i32, ptr %9, align 8, !tbaa !142
  %.not = icmp eq i32 %10, 0
  br i1 %.not, label %29, label %11

11:                                               ; preds = %8
  %12 = getelementptr inbounds nuw i8, ptr %1, i64 32
  %13 = load ptr, ptr %12, align 8, !tbaa !79
  %14 = getelementptr inbounds nuw i8, ptr %13, i64 760
  %15 = load ptr, ptr %14, align 8, !tbaa !71
  %16 = getelementptr inbounds nuw i8, ptr %15, i64 52
  %17 = load float, ptr %16, align 4, !tbaa !155
  %18 = tail call reassoc nsz arcp contract afn float @dt_bauhaus_slider_get(ptr noundef %0) #18
  store float %18, ptr %16, align 4, !tbaa !155
  %19 = load ptr, ptr getelementptr inbounds nuw (i8, ptr @darktable, i64 64), align 8, !tbaa !119
  %20 = load ptr, ptr %12, align 8, !tbaa !79
  tail call void @dt_dev_add_history_item(ptr noundef %19, ptr noundef %20, i32 noundef 1) #18
  %21 = fcmp reassoc nsz arcp contract afn oeq float %17, 0.000000e+00
  br i1 %21, label %22, label %29

22:                                               ; preds = %11
  %23 = load float, ptr %16, align 4, !tbaa !155
  %24 = fcmp reassoc nsz arcp contract afn une float %23, 0.000000e+00
  br i1 %24, label %25, label %29

25:                                               ; preds = %22
  %26 = load ptr, ptr %12, align 8, !tbaa !79
  %27 = getelementptr inbounds nuw i8, ptr %26, i64 664
  %28 = load ptr, ptr %27, align 8, !tbaa !80
  tail call void @dt_dev_reprocess_all(ptr noundef %28) #18
  tail call void (...) @dt_control_queue_redraw() #18
  br label %29

29:                                               ; preds = %11, %22, %25, %2, %8
  ret void
}